target datalayout = "e-m:e-p270:32:32-p271:32:32-p272:64:64-i64:64-i128:128-f80:128-n8:16:32:64-S128"
target triple = "x86_64-pc-linux-gnu"

%struct.DepsLog = type { i8, ptr, %"class.std::__cxx11::basic_string", %"class.std::vector", %"class.std::vector.3" }
%"class.std::__cxx11::basic_string" = type { %"struct.std::__cxx11::basic_string<char>::_Alloc_hider", i64, %union.anon }
%"struct.std::__cxx11::basic_string<char>::_Alloc_hider" = type { ptr }
%union.anon = type { i64, [8 x i8] }
%"class.std::vector" = type { %"struct.std::_Vector_base" }
%"struct.std::_Vector_base" = type { %"struct.std::_Vector_base<Node *, std::allocator<Node *>>::_Vector_impl" }
%"struct.std::_Vector_base<Node *, std::allocator<Node *>>::_Vector_impl" = type { %"struct.std::_Vector_base<Node *, std::allocator<Node *>>::_Vector_impl_data" }
%"struct.std::_Vector_base<Node *, std::allocator<Node *>>::_Vector_impl_data" = type { ptr, ptr, ptr }
%"class.std::vector.3" = type { %"struct.std::_Vector_base.4" }
%"struct.std::_Vector_base.4" = type { %"struct.std::_Vector_base<DepsLog::Deps *, std::allocator<DepsLog::Deps *>>::_Vector_impl" }
%"struct.std::_Vector_base<DepsLog::Deps *, std::allocator<DepsLog::Deps *>>::_Vector_impl" = type { %"struct.std::_Vector_base<DepsLog::Deps *, std::allocator<DepsLog::Deps *>>::_Vector_impl_data" }
%"struct.std::_Vector_base<DepsLog::Deps *, std::allocator<DepsLog::Deps *>>::_Vector_impl_data" = type { ptr, ptr, ptr }
%struct.Node = type <{ %"class.std::__cxx11::basic_string", i64, i64, i32, i8, i8, i8, i8, ptr, %"class.std::vector.8", %"class.std::vector.8", i32, [4 x i8] }>
%"class.std::vector.8" = type { %"struct.std::_Vector_base.9" }
%"struct.std::_Vector_base.9" = type { %"struct.std::_Vector_base<Edge *, std::allocator<Edge *>>::_Vector_impl" }
%"struct.std::_Vector_base<Edge *, std::allocator<Edge *>>::_Vector_impl" = type { %"struct.std::_Vector_base<Edge *, std::allocator<Edge *>>::_Vector_impl_data" }
%"struct.std::_Vector_base<Edge *, std::allocator<Edge *>>::_Vector_impl_data" = type { ptr, ptr, ptr }

@.str.9 = private unnamed_addr constant [3 x i8] zeroinitializer, align 1

; Function Attrs: mustprogress nounwind uwtable
define available_externally noundef ptr @_ZNKSt7__cxx1112basic_stringIcSt11char_traitsIcESaIcEE7_M_dataEv(ptr noundef nonnull align 8 dereferenceable(32) %0) #0 align 2 {
  %2 = alloca ptr, align 8
  store ptr %0, ptr %2, align 8, !tbaa !36
  %3 = load ptr, ptr %2, align 8
  %4 = getelementptr inbounds nuw %"class.std::__cxx11::basic_string", ptr %3, i32 0, i32 0
  %5 = getelementptr inbounds nuw %"struct.std::__cxx11::basic_string<char>::_Alloc_hider", ptr %4, i32 0, i32 0
  %6 = load ptr, ptr %5, align 8, !tbaa !107
  ret ptr %6
}

; Function Attrs: mustprogress nounwind uwtable
define linkonce_odr dso_local void @_ZN4Node6set_idEi(ptr noundef nonnull align 8 dereferenceable(116) %0, i32 noundef %1) #0 comdat align 2 {
  %3 = alloca ptr, align 8
  %4 = alloca i32, align 4
  store ptr %0, ptr %3, align 8, !tbaa !46
  store i32 %1, ptr %4, align 4, !tbaa !50
  %5 = load ptr, ptr %3, align 8
  %6 = load i32, ptr %4, align 4, !tbaa !50
  %7 = getelementptr inbounds nuw %struct.Node, ptr %5, i32 0, i32 11
  store i32 %6, ptr %7, align 8, !tbaa !66
  ret void
}

; Function Attrs: mustprogress nounwind uwtable
define linkonce_odr dso_local noundef i64 @_ZNKSt6vectorIP4NodeSaIS1_EE4sizeEv(ptr noundef nonnull align 8 dereferenceable(24) %0) #0 comdat align 2 {
  %2 = alloca ptr, align 8
  store ptr %0, ptr %2, align 8, !tbaa !32
  %3 = load ptr, ptr %2, align 8
  %4 = getelementptr inbounds nuw %"struct.std::_Vector_base", ptr %3, i32 0, i32 0
  %5 = getelementptr inbounds nuw %"struct.std::_Vector_base<Node *, std::allocator<Node *>>::_Vector_impl_data", ptr %4, i32 0, i32 1
  %6 = load ptr, ptr %5, align 8, !tbaa !35
  %7 = getelementptr inbounds nuw %"struct.std::_Vector_base", ptr %3, i32 0, i32 0
  %8 = getelementptr inbounds nuw %"struct.std::_Vector_base<Node *, std::allocator<Node *>>::_Vector_impl_data", ptr %7, i32 0, i32 0
  %9 = load ptr, ptr %8, align 8, !tbaa !34
  %10 = ptrtoint ptr %6 to i64
  %11 = ptrtoint ptr %9 to i64
  %12 = sub i64 %10, %11
  %13 = sdiv exact i64 %12, 8
  ret i64 %13
}

; Function Attrs: mustprogress nounwind uwtable
define available_externally noundef ptr @_ZNKSt7__cxx1112basic_stringIcSt11char_traitsIcESaIcEE4dataEv(ptr noundef nonnull align 8 dereferenceable(32) %0) #0 align 2 {
  %2 = alloca ptr, align 8
  store ptr %0, ptr %2, align 8, !tbaa !36
  %3 = load ptr, ptr %2, align 8
  %4 = call noundef ptr @_ZNKSt7__cxx1112basic_stringIcSt11char_traitsIcESaIcEE7_M_dataEv(ptr noundef nonnull align 8 dereferenceable(32) %3)
  ret ptr %4
}

; Function Attrs: mustprogress nounwind uwtable
define available_externally noundef i64 @_ZNKSt7__cxx1112basic_stringIcSt11char_traitsIcESaIcEE4sizeEv(ptr noundef nonnull align 8 dereferenceable(32) %0) #0 align 2 {
  %2 = alloca ptr, align 8
  store ptr %0, ptr %2, align 8, !tbaa !36
  %3 = load ptr, ptr %2, align 8
  %4 = getelementptr inbounds nuw %"class.std::__cxx11::basic_string", ptr %3, i32 0, i32 1
  %5 = load i64, ptr %4, align 8, !tbaa !101
  ret i64 %5
}

; Function Attrs: mustprogress nounwind uwtable
define linkonce_odr dso_local noundef nonnull align 8 dereferenceable(32) ptr @_ZNK4Node4pathB5cxx11Ev(ptr noundef nonnull align 8 dereferenceable(116) %0) #0 comdat align 2 {
  %2 = alloca ptr, align 8
  store ptr %0, ptr %2, align 8, !tbaa !46
  %3 = load ptr, ptr %2, align 8
  %4 = getelementptr inbounds nuw %struct.Node, ptr %3, i32 0, i32 0
  ret ptr %4
}

; Function Attrs: mustprogress uwtable
define dso_local noundef zeroext i1 @_ZN7DepsLog8RecordIdEP4Node(ptr noundef nonnull align 8 dereferenceable(96) %0, ptr noundef %1) #1 align 2 {
  %3 = alloca i1, align 1
  %4 = alloca ptr, align 8
  %5 = alloca ptr, align 8
  %6 = alloca i32, align 4
  %7 = alloca i32, align 4
  %8 = alloca i32, align 4
  %9 = alloca i32, align 4
  %10 = alloca i32, align 4
  %11 = alloca i32, align 4
  store ptr %0, ptr %4, align 8, !tbaa !4
  store ptr %1, ptr %5, align 8, !tbaa !46
  %12 = load ptr, ptr %4, align 8
  call void @llvm.lifetime.start.p0(i64 4, ptr %6) #8
  %13 = load ptr, ptr %5, align 8, !tbaa !46
  %14 = call noundef nonnull align 8 dereferenceable(32) ptr @_ZNK4Node4pathB5cxx11Ev(ptr noundef nonnull align 8 dereferenceable(116) %13)
  %15 = call noundef i64 @_ZNKSt7__cxx1112basic_stringIcSt11char_traitsIcESaIcEE4sizeEv(ptr noundef nonnull align 8 dereferenceable(32) %14) #8
  %16 = trunc i64 %15 to i32
  store i32 %16, ptr %6, align 4, !tbaa !50
  call void @llvm.lifetime.start.p0(i64 4, ptr %7) #8
  %17 = load i32, ptr %6, align 4, !tbaa !50
  %18 = srem i32 %17, 4
  %19 = sub nsw i32 4, %18
  %20 = srem i32 %19, 4
  store i32 %20, ptr %7, align 4, !tbaa !50
  call void @llvm.lifetime.start.p0(i64 4, ptr %8) #8
  %21 = load i32, ptr %6, align 4, !tbaa !50
  %22 = load i32, ptr %7, align 4, !tbaa !50
  %23 = add nsw i32 %21, %22
  %24 = add nsw i32 %23, 4
  store i32 %24, ptr %8, align 4, !tbaa !50
  %25 = load i32, ptr %8, align 4, !tbaa !50
  %26 = zext i32 %25 to i64
  %27 = icmp ugt i64 %26, 524287
  br i1 %27, label %28, label %30

28:                                               ; preds = %2
  %29 = call ptr @__errno_location() #19
  store i32 34, ptr %29, align 4, !tbaa !50
  store i1 false, ptr %3, align 1
  store i32 1, ptr %9, align 4
  br label %83

30:                                               ; preds = %2
  %31 = call noundef zeroext i1 @_ZN7DepsLog20OpenForWriteIfNeededEv(ptr noundef nonnull align 8 dereferenceable(96) %12)
  br i1 %31, label %33, label %32

32:                                               ; preds = %30
  store i1 false, ptr %3, align 1
  store i32 1, ptr %9, align 4
  br label %83

33:                                               ; preds = %30
  %34 = getelementptr inbounds nuw %struct.DepsLog, ptr %12, i32 0, i32 1
  %35 = load ptr, ptr %34, align 8, !tbaa !9
  %36 = call i64 @fwrite(ptr noundef %8, i64 noundef 4, i64 noundef 1, ptr noundef %35)
  %37 = icmp ult i64 %36, 1
  br i1 %37, label %38, label %39

38:                                               ; preds = %33
  store i1 false, ptr %3, align 1
  store i32 1, ptr %9, align 4
  br label %83

39:                                               ; preds = %33
  %40 = load ptr, ptr %5, align 8, !tbaa !46
  %41 = call noundef nonnull align 8 dereferenceable(32) ptr @_ZNK4Node4pathB5cxx11Ev(ptr noundef nonnull align 8 dereferenceable(116) %40)
  %42 = call noundef ptr @_ZNKSt7__cxx1112basic_stringIcSt11char_traitsIcESaIcEE4dataEv(ptr noundef nonnull align 8 dereferenceable(32) %41) #8
  %43 = load i32, ptr %6, align 4, !tbaa !50
  %44 = sext i32 %43 to i64
  %45 = getelementptr inbounds nuw %struct.DepsLog, ptr %12, i32 0, i32 1
  %46 = load ptr, ptr %45, align 8, !tbaa !9
  %47 = call i64 @fwrite(ptr noundef %42, i64 noundef %44, i64 noundef 1, ptr noundef %46)
  %48 = icmp ult i64 %47, 1
  br i1 %48, label %49, label %50

49:                                               ; preds = %39
  store i1 false, ptr %3, align 1
  store i32 1, ptr %9, align 4
  br label %83

50:                                               ; preds = %39
  %51 = load i32, ptr %7, align 4, !tbaa !50
  %52 = icmp ne i32 %51, 0
  br i1 %52, label %53, label %61

53:                                               ; preds = %50
  %54 = load i32, ptr %7, align 4, !tbaa !50
  %55 = sext i32 %54 to i64
  %56 = getelementptr inbounds nuw %struct.DepsLog, ptr %12, i32 0, i32 1
  %57 = load ptr, ptr %56, align 8, !tbaa !9
  %58 = call i64 @fwrite(ptr noundef @.str.9, i64 noundef %55, i64 noundef 1, ptr noundef %57)
  %59 = icmp ult i64 %58, 1
  br i1 %59, label %60, label %61

60:                                               ; preds = %53
  store i1 false, ptr %3, align 1
  store i32 1, ptr %9, align 4
  br label %83

61:                                               ; preds = %53, %50
  call void @llvm.lifetime.start.p0(i64 4, ptr %10) #8
  %62 = getelementptr inbounds nuw %struct.DepsLog, ptr %12, i32 0, i32 3
  %63 = call noundef i64 @_ZNKSt6vectorIP4NodeSaIS1_EE4sizeEv(ptr noundef nonnull align 8 dereferenceable(24) %62) #8
  %64 = trunc i64 %63 to i32
  store i32 %64, ptr %10, align 4, !tbaa !50
  call void @llvm.lifetime.start.p0(i64 4, ptr %11) #8
  %65 = load i32, ptr %10, align 4, !tbaa !50
  %66 = xor i32 %65, -1
  store i32 %66, ptr %11, align 4, !tbaa !50
  %67 = getelementptr inbounds nuw %struct.DepsLog, ptr %12, i32 0, i32 1
  %68 = load ptr, ptr %67, align 8, !tbaa !9
  %69 = call i64 @fwrite(ptr noundef %11, i64 noundef 4, i64 noundef 1, ptr noundef %68)
  %70 = icmp ult i64 %69, 1
  br i1 %70, label %71, label %72

71:                                               ; preds = %61
  store i1 false, ptr %3, align 1
  store i32 1, ptr %9, align 4
  br label %82

72:                                               ; preds = %61
  %73 = getelementptr inbounds nuw %struct.DepsLog, ptr %12, i32 0, i32 1
  %74 = load ptr, ptr %73, align 8, !tbaa !9
  %75 = call i32 @fflush(ptr noundef %74)
  %76 = icmp ne i32 %75, 0
  br i1 %76, label %77, label %78

77:                                               ; preds = %72
  store i1 false, ptr %3, align 1
  store i32 1, ptr %9, align 4
  br label %82

78:                                               ; preds = %72
  %79 = load ptr, ptr %5, align 8, !tbaa !46
  %80 = load i32, ptr %10, align 4, !tbaa !50
  call void @_ZN4Node6set_idEi(ptr noundef nonnull align 8 dereferenceable(116) %79, i32 noundef %80)
  %81 = getelementptr inbounds nuw %struct.DepsLog, ptr %12, i32 0, i32 3
  call void @_ZNSt6vectorIP4NodeSaIS1_EE9push_backERKS1_(ptr noundef nonnull align 8 dereferenceable(24) %81, ptr noundef nonnull align 8 dereferenceable(8) %5)
  store i1 true, ptr %3, align 1
  store i32 1, ptr %9, align 4
  br label %82

82:                                               ; preds = %78, %77, %71
  call void @llvm.lifetime.end.p0(i64 4, ptr %11) #8
  call void @llvm.lifetime.end.p0(i64 4, ptr %10) #8
  br label %83

83:                                               ; preds = %82, %60, %49, %38, %32, %28
  call void @llvm.lifetime.end.p0(i64 4, ptr %8) #8
  call void @llvm.lifetime.end.p0(i64 4, ptr %7) #8
  call void @llvm.lifetime.end.p0(i64 4, ptr %6) #8
  %84 = load i1, ptr %3, align 1
  ret i1 %84
}