; Function Attrs: mustprogress uwtable
define dso_local noundef zeroext i1 @_ZN7DepsLog8RecordIdEP4Node(ptr noundef nonnull align 8 dereferenceable(96) %0, ptr noundef %1) local_unnamed_addr #1 align 2 {
  %3 = alloca ptr, align 8
  %4 = alloca i32, align 4
  %5 = alloca i32, align 4
  store ptr %1, ptr %3, align 8, !tbaa !48
  %6 = getelementptr inbounds nuw i8, ptr %1, i64 8
  %7 = load i64, ptr %6, align 8, !tbaa !31
  %8 = trunc i64 %7 to i32
  %9 = sub i32 0, %8
  %10 = and i32 %9, 3
  call void @llvm.lifetime.start.p0(i64 4, ptr nonnull %4) #24
  %11 = add i32 %8, 4
  %12 = add i32 %11, %10
  store i32 %12, ptr %4, align 4, !tbaa !70
  %13 = icmp ugt i32 %12, 524287
  br i1 %13, label %14, label %16

14:                                               ; preds = %2
  %15 = tail call ptr @__errno_location() #26
  store i32 34, ptr %15, align 4, !tbaa !70
  br label %55

16:                                               ; preds = %2
  %17 = tail call noundef zeroext i1 @_ZN7DepsLog20OpenForWriteIfNeededEv(ptr noundef nonnull align 8 dereferenceable(96) %0)
  br i1 %17, label %18, label %55

18:                                               ; preds = %16
  %19 = getelementptr inbounds nuw i8, ptr %0, i64 8
  %20 = load ptr, ptr %19, align 8, !tbaa !4
  %21 = call i64 @fwrite(ptr noundef nonnull %4, i64 noundef 4, i64 noundef 1, ptr noundef %20)
  %22 = icmp eq i64 %21, 0
  br i1 %22, label %55, label %23

23:                                               ; preds = %18
  %24 = load ptr, ptr %1, align 8, !tbaa !30
  %sext = shl i64 %7, 32
  %25 = ashr exact i64 %sext, 32
  %26 = load ptr, ptr %19, align 8, !tbaa !4
  %27 = tail call i64 @fwrite(ptr noundef %24, i64 noundef %25, i64 noundef 1, ptr noundef %26)
  %28 = icmp eq i64 %27, 0
  br i1 %28, label %55, label %29

29:                                               ; preds = %23
  %.not = icmp eq i32 %10, 0
  br i1 %.not, label %35, label %30

30:                                               ; preds = %29
  %31 = zext nneg i32 %10 to i64
  %32 = load ptr, ptr %19, align 8, !tbaa !4
  %33 = tail call i64 @fwrite(ptr noundef nonnull @.str.9, i64 noundef %31, i64 noundef 1, ptr noundef %32)
  %34 = icmp eq i64 %33, 0
  br i1 %34, label %55, label %35

35:                                               ; preds = %30, %29
  %36 = getelementptr inbounds nuw i8, ptr %0, i64 48
  %37 = getelementptr inbounds nuw i8, ptr %0, i64 56
  %38 = load ptr, ptr %37, align 8, !tbaa !69
  %39 = load ptr, ptr %36, align 8, !tbaa !28
  %40 = ptrtoint ptr %38 to i64
  %41 = ptrtoint ptr %39 to i64
  %42 = sub i64 %40, %41
  %43 = lshr exact i64 %42, 3
  %44 = trunc i64 %43 to i32
  call void @llvm.lifetime.start.p0(i64 4, ptr nonnull %5) #24
  %45 = xor i32 %44, -1
  store i32 %45, ptr %5, align 4, !tbaa !70
  %46 = load ptr, ptr %19, align 8, !tbaa !4
  %47 = call i64 @fwrite(ptr noundef nonnull %5, i64 noundef 4, i64 noundef 1, ptr noundef %46)
  %48 = icmp eq i64 %47, 0
  br i1 %48, label %54, label %49

49:                                               ; preds = %35
  %50 = load ptr, ptr %19, align 8, !tbaa !4
  %51 = tail call i32 @fflush(ptr noundef %50)
  %.not10 = icmp eq i32 %51, 0
  br i1 %.not10, label %52, label %54

52:                                               ; preds = %49
  %53 = getelementptr inbounds nuw i8, ptr %1, i64 112
  store i32 %44, ptr %53, align 8, !tbaa !50
  call void @_ZNSt6vectorIP4NodeSaIS1_EE9push_backERKS1_(ptr noundef nonnull align 8 dereferenceable(24) %36, ptr noundef nonnull align 8 dereferenceable(8) %3)
  br label %54

54:                                               ; preds = %49, %35, %52
  %.1 = phi i1 [ true, %52 ], [ false, %35 ], [ false, %49 ]
  call void @llvm.lifetime.end.p0(i64 4, ptr nonnull %5) #24
  br label %55

55:                                               ; preds = %30, %23, %18, %16, %54, %14
  %.0 = phi i1 [ false, %14 ], [ %.1, %54 ], [ false, %16 ], [ false, %18 ], [ false, %23 ], [ false, %30 ]
  call void @llvm.lifetime.end.p0(i64 4, ptr nonnull %4) #24
  ret i1 %.0
}